target datalayout = "e-m:e-p270:32:32-p271:32:32-p272:64:64-i64:64-i128:128-f80:128-n8:16:32:64-S128"
target triple = "x86_64-unknown-linux-gnu"

%"class.std::__cxx11::basic_string" = type { %"struct.std::__cxx11::basic_string<char>::_Alloc_hider", i64, %union.anon }
%"struct.std::__cxx11::basic_string<char>::_Alloc_hider" = type { ptr }
%union.anon = type { i64, [8 x i8] }
%"class.rocksdb::IOStatus" = type { %"class.rocksdb::Status" }
%"class.rocksdb::Status" = type { i8, i8, i8, i8, i8, i8, %"class.std::unique_ptr" }
%"class.std::unique_ptr" = type { %"struct.std::__uniq_ptr_data" }
%"struct.std::__uniq_ptr_data" = type { %"class.std::__uniq_ptr_impl" }
%"class.std::__uniq_ptr_impl" = type { %"class.std::tuple" }
%"class.std::tuple" = type { %"struct.std::_Tuple_impl" }
%"struct.std::_Tuple_impl" = type { %"struct.std::_Head_base.1" }
%"struct.std::_Head_base.1" = type { ptr }
%"class.rocksdb::FaultInjectionTestFS" = type <{ %"class.rocksdb::FileSystemWrapper", %"class.rocksdb::port::Mutex", %"class.std::map", %"class.std::set", %"class.std::unordered_map", i8, i8, [6 x i8], %"class.rocksdb::IOStatus", %"class.std::unique_ptr.17", i8, i8, [2 x i8], %"class.rocksdb::Random", i32, i32, %"struct.std::atomic", i8, [3 x i8], %"class.std::vector.25", %"class.std::set.30", i8, i8, i8, [5 x i8] }>
%"class.rocksdb::FileSystemWrapper" = type { %"class.rocksdb::FileSystem", %"class.std::shared_ptr" }
%"class.rocksdb::FileSystem" = type { %"class.rocksdb::Customizable" }
%"class.rocksdb::Customizable" = type { %"class.rocksdb::Configurable" }
%"class.rocksdb::Configurable" = type { ptr, %"class.std::vector" }
%"class.std::vector" = type { %"struct.std::_Vector_base" }
%"struct.std::_Vector_base" = type { %"struct.std::_Vector_base<rocksdb::Configurable::RegisteredOptions, std::allocator<rocksdb::Configurable::RegisteredOptions>>::_Vector_impl" }
%"struct.std::_Vector_base<rocksdb::Configurable::RegisteredOptions, std::allocator<rocksdb::Configurable::RegisteredOptions>>::_Vector_impl" = type { %"struct.std::_Vector_base<rocksdb::Configurable::RegisteredOptions, std::allocator<rocksdb::Configurable::RegisteredOptions>>::_Vector_impl_data" }
%"struct.std::_Vector_base<rocksdb::Configurable::RegisteredOptions, std::allocator<rocksdb::Configurable::RegisteredOptions>>::_Vector_impl_data" = type { ptr, ptr, ptr }
%"class.std::shared_ptr" = type { %"class.std::__shared_ptr" }
%"class.std::__shared_ptr" = type { ptr, %"class.std::__shared_count" }
%"class.std::__shared_count" = type { ptr }
%"class.rocksdb::port::Mutex" = type { %union.pthread_mutex_t }
%union.pthread_mutex_t = type { %struct.__pthread_mutex_s }
%struct.__pthread_mutex_s = type { i32, i32, i32, i32, i32, i16, i16, %struct.__pthread_internal_list }
%struct.__pthread_internal_list = type { ptr, ptr }
%"class.std::map" = type { %"class.std::_Rb_tree" }
%"class.std::_Rb_tree" = type { %"struct.std::_Rb_tree<std::__cxx11::basic_string<char>, std::pair<const std::__cxx11::basic_string<char>, rocksdb::FSFileState>, std::_Select1st<std::pair<const std::__cxx11::basic_string<char>, rocksdb::FSFileState>>, std::less<std::__cxx11::basic_string<char>>>::_Rb_tree_impl" }
%"struct.std::_Rb_tree<std::__cxx11::basic_string<char>, std::pair<const std::__cxx11::basic_string<char>, rocksdb::FSFileState>, std::_Select1st<std::pair<const std::__cxx11::basic_string<char>, rocksdb::FSFileState>>, std::less<std::__cxx11::basic_string<char>>>::_Rb_tree_impl" = type { %"struct.std::_Rb_tree_key_compare", %"struct.std::_Rb_tree_header" }
%"struct.std::_Rb_tree_key_compare" = type { %"struct.std::less" }
%"struct.std::less" = type { i8 }
%"struct.std::_Rb_tree_header" = type { %"struct.std::_Rb_tree_node_base", i64 }
%"struct.std::_Rb_tree_node_base" = type { i32, ptr, ptr, ptr }
%"class.std::set" = type { %"class.std::_Rb_tree.8" }
%"class.std::_Rb_tree.8" = type { %"struct.std::_Rb_tree<std::__cxx11::basic_string<char>, std::__cxx11::basic_string<char>, std::_Identity<std::__cxx11::basic_string<char>>, std::less<std::__cxx11::basic_string<char>>>::_Rb_tree_impl" }
%"struct.std::_Rb_tree<std::__cxx11::basic_string<char>, std::__cxx11::basic_string<char>, std::_Identity<std::__cxx11::basic_string<char>>, std::less<std::__cxx11::basic_string<char>>>::_Rb_tree_impl" = type { %"struct.std::_Rb_tree_key_compare", %"struct.std::_Rb_tree_header" }
%"class.std::unordered_map" = type { %"class.std::_Hashtable" }
%"class.std::_Hashtable" = type { ptr, i64, %"struct.std::__detail::_Hash_node_base", i64, %"struct.std::__detail::_Prime_rehash_policy", ptr }
%"struct.std::__detail::_Hash_node_base" = type { ptr }
%"struct.std::__detail::_Prime_rehash_policy" = type { float, i64 }
%"class.std::unique_ptr.17" = type { %"struct.std::__uniq_ptr_data.18" }
%"struct.std::__uniq_ptr_data.18" = type { %"class.std::__uniq_ptr_impl.19" }
%"class.std::__uniq_ptr_impl.19" = type { %"class.std::tuple.20" }
%"class.std::tuple.20" = type { %"struct.std::_Tuple_impl.21" }
%"struct.std::_Tuple_impl.21" = type { %"struct.std::_Head_base.24" }
%"struct.std::_Head_base.24" = type { ptr }
%"class.rocksdb::Random" = type { i32 }
%"struct.std::atomic" = type { %"struct.std::__atomic_base" }
%"struct.std::__atomic_base" = type { i32 }
%"class.std::vector.25" = type { %"struct.std::_Vector_base.26" }
%"struct.std::_Vector_base.26" = type { %"struct.std::_Vector_base<rocksdb::FileType, std::allocator<rocksdb::FileType>>::_Vector_impl" }
%"struct.std::_Vector_base<rocksdb::FileType, std::allocator<rocksdb::FileType>>::_Vector_impl" = type { %"struct.std::_Vector_base<rocksdb::FileType, std::allocator<rocksdb::FileType>>::_Vector_impl_data" }
%"struct.std::_Vector_base<rocksdb::FileType, std::allocator<rocksdb::FileType>>::_Vector_impl_data" = type { ptr, ptr, ptr }
%"class.std::set.30" = type { %"class.std::_Rb_tree.31" }
%"class.std::_Rb_tree.31" = type { %"struct.std::_Rb_tree<rocksdb::FileType, rocksdb::FileType, std::_Identity<rocksdb::FileType>, std::less<rocksdb::FileType>>::_Rb_tree_impl" }
%"struct.std::_Rb_tree<rocksdb::FileType, rocksdb::FileType, std::_Identity<rocksdb::FileType>, std::less<rocksdb::FileType>>::_Rb_tree_impl" = type { %"struct.std::_Rb_tree_key_compare.35", %"struct.std::_Rb_tree_header" }
%"struct.std::_Rb_tree_key_compare.35" = type { %"struct.std::less.36" }
%"struct.std::less.36" = type { i8 }
%"struct.rocksdb::FaultInjectionTestFS::ErrorContext" = type <{ %"class.rocksdb::Random", i32, i32, i8, [3 x i8], ptr, %"class.std::__cxx11::basic_string", i32, i32, i8, [7 x i8] }>

@stderr = external global ptr, align 8
@.str.17 = private unnamed_addr constant [26 x i8] c"Injected error type = %d\0A\00", align 1
@.str.18 = private unnamed_addr constant [13 x i8] c"Message: %s\0A\00", align 1

; Function Attrs: mustprogress nounwind uwtable
define linkonce_odr noundef nonnull align 8 dereferenceable(8) ptr @_ZNSt10_Head_baseILm0EPN7rocksdb14ThreadLocalPtrELb0EE7_M_headERKS3_(ptr noundef nonnull align 8 dereferenceable(8) %__b) #6 comdat align 2 {
entry:
  %__b.addr = alloca ptr, align 8
  store ptr %__b, ptr %__b.addr, align 8
  %0 = load ptr, ptr %__b.addr, align 8
  %_M_head_impl = getelementptr inbounds %"struct.std::_Head_base.24", ptr %0, i32 0, i32 0
  ret ptr %_M_head_impl
}

; Function Attrs: mustprogress nounwind uwtable
define linkonce_odr noundef nonnull align 8 dereferenceable(8) ptr @_ZNSt11_Tuple_implILm0EJPN7rocksdb14ThreadLocalPtrESt14default_deleteIS1_EEE7_M_headERKS5_(ptr noundef nonnull align 8 dereferenceable(8) %__t) #6 comdat align 2 {
entry:
  %__t.addr = alloca ptr, align 8
  store ptr %__t, ptr %__t.addr, align 8
  %0 = load ptr, ptr %__t.addr, align 8
  %call = call noundef nonnull align 8 dereferenceable(8) ptr @_ZNSt10_Head_baseILm0EPN7rocksdb14ThreadLocalPtrELb0EE7_M_headERKS3_(ptr noundef nonnull align 8 dereferenceable(8) %0) #3
  ret ptr %call
}

; Function Attrs: mustprogress nounwind uwtable
define linkonce_odr noundef nonnull align 8 dereferenceable(8) ptr @_ZSt12__get_helperILm0EPN7rocksdb14ThreadLocalPtrEJSt14default_deleteIS1_EEERKT0_RKSt11_Tuple_implIXT_EJS5_DpT1_EE(ptr noundef nonnull align 8 dereferenceable(8) %__t) #6 comdat {
entry:
  %__t.addr = alloca ptr, align 8
  store ptr %__t, ptr %__t.addr, align 8
  %0 = load ptr, ptr %__t.addr, align 8
  %call = call noundef nonnull align 8 dereferenceable(8) ptr @_ZNSt11_Tuple_implILm0EJPN7rocksdb14ThreadLocalPtrESt14default_deleteIS1_EEE7_M_headERKS5_(ptr noundef nonnull align 8 dereferenceable(8) %0) #3
  ret ptr %call
}

; Function Attrs: mustprogress nounwind uwtable
define linkonce_odr noundef nonnull align 8 dereferenceable(8) ptr @_ZSt3getILm0EJPN7rocksdb14ThreadLocalPtrESt14default_deleteIS1_EEERKNSt13tuple_elementIXT_ESt5tupleIJDpT0_EEE4typeERKS9_(ptr noundef nonnull align 8 dereferenceable(8) %__t) #6 comdat {
entry:
  %__t.addr = alloca ptr, align 8
  store ptr %__t, ptr %__t.addr, align 8
  %0 = load ptr, ptr %__t.addr, align 8
  %call = call noundef nonnull align 8 dereferenceable(8) ptr @_ZSt12__get_helperILm0EPN7rocksdb14ThreadLocalPtrEJSt14default_deleteIS1_EEERKT0_RKSt11_Tuple_implIXT_EJS5_DpT1_EE(ptr noundef nonnull align 8 dereferenceable(8) %0) #3
  ret ptr %call
}

; Function Attrs: mustprogress nounwind uwtable
define linkonce_odr noundef ptr @_ZNKSt15__uniq_ptr_implIN7rocksdb14ThreadLocalPtrESt14default_deleteIS1_EE6_M_ptrEv(ptr noundef nonnull align 8 dereferenceable(8) %this) #6 comdat align 2 {
entry:
  %this.addr = alloca ptr, align 8
  store ptr %this, ptr %this.addr, align 8
  %this1 = load ptr, ptr %this.addr, align 8
  %_M_t = getelementptr inbounds %"class.std::__uniq_ptr_impl.19", ptr %this1, i32 0, i32 0
  %call = call noundef nonnull align 8 dereferenceable(8) ptr @_ZSt3getILm0EJPN7rocksdb14ThreadLocalPtrESt14default_deleteIS1_EEERKNSt13tuple_elementIXT_ESt5tupleIJDpT0_EEE4typeERKS9_(ptr noundef nonnull align 8 dereferenceable(8) %_M_t) #3
  %0 = load ptr, ptr %call, align 8
  ret ptr %0
}

; Function Attrs: mustprogress nounwind uwtable
define linkonce_odr noundef ptr @_ZNKSt10unique_ptrIN7rocksdb14ThreadLocalPtrESt14default_deleteIS1_EE3getEv(ptr noundef nonnull align 8 dereferenceable(8) %this) #6 comdat align 2 {
entry:
  %this.addr = alloca ptr, align 8
  store ptr %this, ptr %this.addr, align 8
  %this1 = load ptr, ptr %this.addr, align 8
  %_M_t = getelementptr inbounds %"class.std::unique_ptr.17", ptr %this1, i32 0, i32 0
  %call = call noundef ptr @_ZNKSt15__uniq_ptr_implIN7rocksdb14ThreadLocalPtrESt14default_deleteIS1_EE6_M_ptrEv(ptr noundef nonnull align 8 dereferenceable(8) %_M_t) #3
  ret ptr %call
}

; Function Attrs: mustprogress nounwind uwtable
define linkonce_odr noundef ptr @_ZNKSt10unique_ptrIN7rocksdb14ThreadLocalPtrESt14default_deleteIS1_EEptEv(ptr noundef nonnull align 8 dereferenceable(8) %this) #6 comdat align 2 {
entry:
  %this.addr = alloca ptr, align 8
  store ptr %this, ptr %this.addr, align 8
  %this1 = load ptr, ptr %this.addr, align 8
  %call = call noundef ptr @_ZNKSt10unique_ptrIN7rocksdb14ThreadLocalPtrESt14default_deleteIS1_EE3getEv(ptr noundef nonnull align 8 dereferenceable(8) %this1) #3
  ret ptr %call
}

; Function Attrs: mustprogress uwtable
define void @_ZN7rocksdb20FaultInjectionTestFS19PrintFaultBacktraceEv(ptr noundef nonnull align 8 dereferenceable(371) %this) #2 align 2 {
entry:
  %this.addr = alloca ptr, align 8
  %ctx = alloca ptr, align 8
  store ptr %this, ptr %this.addr, align 8
  %this1 = load ptr, ptr %this.addr, align 8
  %thread_local_error_ = getelementptr inbounds %"class.rocksdb::FaultInjectionTestFS", ptr %this1, i32 0, i32 9
  %call = call noundef ptr @_ZNKSt10unique_ptrIN7rocksdb14ThreadLocalPtrESt14default_deleteIS1_EEptEv(ptr noundef nonnull align 8 dereferenceable(8) %thread_local_error_) #3
  %call2 = call noundef ptr @_ZNK7rocksdb14ThreadLocalPtr3GetEv(ptr noundef nonnull align 4 dereferenceable(4) %call)
  store ptr %call2, ptr %ctx, align 8
  %0 = load ptr, ptr %ctx, align 8
  %cmp = icmp eq ptr %0, null
  br i1 %cmp, label %if.then, label %if.end

if.then:                                          ; preds = %entry
  br label %return

if.end:                                           ; preds = %entry
  %1 = load ptr, ptr @stderr, align 8
  %2 = load ptr, ptr %ctx, align 8
  %type = getelementptr inbounds %"struct.rocksdb::FaultInjectionTestFS::ErrorContext", ptr %2, i32 0, i32 8
  %3 = load i32, ptr %type, align 4
  %call3 = call i32 (ptr, ptr, ...) @fprintf(ptr noundef %1, ptr noundef @.str.17, i32 noundef %3)
  %4 = load ptr, ptr @stderr, align 8
  %5 = load ptr, ptr %ctx, align 8
  %message = getelementptr inbounds %"struct.rocksdb::FaultInjectionTestFS::ErrorContext", ptr %5, i32 0, i32 6
  %call4 = call noundef ptr @_ZNKSt7__cxx1112basic_stringIcSt11char_traitsIcESaIcEE5c_strEv(ptr noundef nonnull align 8 dereferenceable(32) %message) #3
  %call5 = call i32 (ptr, ptr, ...) @fprintf(ptr noundef %4, ptr noundef @.str.18, ptr noundef %call4)
  %6 = load ptr, ptr %ctx, align 8
  %callstack = getelementptr inbounds %"struct.rocksdb::FaultInjectionTestFS::ErrorContext", ptr %6, i32 0, i32 5
  %7 = load ptr, ptr %callstack, align 8
  %8 = load ptr, ptr %ctx, align 8
  %frames = getelementptr inbounds %"struct.rocksdb::FaultInjectionTestFS::ErrorContext", ptr %8, i32 0, i32 7
  %9 = load i32, ptr %frames, align 8
  call void @_ZN7rocksdb4port17PrintAndFreeStackEPvi(ptr noundef %7, i32 noundef %9)
  %10 = load ptr, ptr %ctx, align 8
  %callstack6 = getelementptr inbounds %"struct.rocksdb::FaultInjectionTestFS::ErrorContext", ptr %10, i32 0, i32 5
  store ptr null, ptr %callstack6, align 8
  br label %return

return:                                           ; preds = %if.end, %if.then
  ret void
}