; Function Attrs: mustprogress uwtable
define void @_ZN7rocksdb20FaultInjectionTestFS19PrintFaultBacktraceEv(ptr nocapture noundef nonnull readonly align 8 dereferenceable(371) %this) local_unnamed_addr #2 align 2 {
entry:
  %thread_local_error_ = getelementptr inbounds i8, ptr %this, i64 264
  %0 = load ptr, ptr %thread_local_error_, align 8
  %call2 = tail call noundef ptr @_ZNK7rocksdb14ThreadLocalPtr3GetEv(ptr noundef nonnull align 4 dereferenceable(4) %0)
  %cmp = icmp eq ptr %call2, null
  br i1 %cmp, label %return, label %if.end

if.end:                                           ; preds = %entry
  %1 = load ptr, ptr @stderr, align 8
  %type = getelementptr inbounds i8, ptr %call2, i64 60
  %2 = load i32, ptr %type, align 4
  %call3 = tail call i32 (ptr, ptr, ...) @fprintf(ptr noundef %1, ptr noundef nonnull @.str.17, i32 noundef %2) #27
  %3 = load ptr, ptr @stderr, align 8
  %message = getelementptr inbounds i8, ptr %call2, i64 24
  %call4 = tail call noundef ptr @_ZNKSt7__cxx1112basic_stringIcSt11char_traitsIcESaIcEE5c_strEv(ptr noundef nonnull align 8 dereferenceable(32) %message) #21
  %call5 = tail call i32 (ptr, ptr, ...) @fprintf(ptr noundef %3, ptr noundef nonnull @.str.18, ptr noundef %call4) #27
  %callstack = getelementptr inbounds i8, ptr %call2, i64 16
  %4 = load ptr, ptr %callstack, align 8
  %frames = getelementptr inbounds i8, ptr %call2, i64 56
  %5 = load i32, ptr %frames, align 8
  tail call void @_ZN7rocksdb4port17PrintAndFreeStackEPvi(ptr noundef %4, i32 noundef %5)
  store ptr null, ptr %callstack, align 8
  br label %return

return:                                           ; preds = %entry, %if.end
  ret void
}